; Function Attrs: mustprogress nounwind uwtable
define dso_local noundef zeroext i1 @_ZNK5clang6format19UnwrappedLineParser12isBlockBeginERKNS0_11FormatTokenE(ptr nocapture noundef nonnull readonly align 8 dereferenceable(3592) %0, ptr noundef nonnull align 8 dereferenceable(305) %1) local_unnamed_addr #0 align 2 {
  %3 = getelementptr inbounds nuw i8, ptr %0, i64 1976
  %4 = load ptr, ptr %3, align 8
  %5 = getelementptr inbounds nuw i8, ptr %4, i64 422
  %6 = load i8, ptr %5, align 2
  %7 = icmp eq i8 %6, 10
  br i1 %7, label %8, label %12

8:                                                ; preds = %2
  %9 = getelementptr inbounds nuw i8, ptr %0, i64 2840
  %10 = load ptr, ptr %9, align 8
  %11 = tail call noundef zeroext i1 @_ZNK5clang6format18AdditionalKeywords14isVerilogBeginERKNS0_11FormatTokenE(ptr noundef nonnull align 8 dereferenceable(2072) %10, ptr noundef nonnull align 8 dereferenceable(305) %1)
  br label %16

12:                                               ; preds = %2
  %13 = getelementptr inbounds nuw i8, ptr %1, i64 16
  %14 = load i16, ptr %13, align 8
  %15 = icmp eq i16 %14, 24
  br label %16

16:                                               ; preds = %12, %8
  %17 = phi i1 [ %11, %8 ], [ %15, %12 ]
  ret i1 %17
}